target datalayout = "e-m:e-p270:32:32-p271:32:32-p272:64:64-i64:64-i128:128-f80:128-n8:16:32:64-S128"
target triple = "x86_64-pc-linux-gnu"

%struct.mbedtls_md_info_t = type { i32, i8, i8 }

; Function Attrs: nounwind uwtable
define hidden i32 @mbedtls_md(ptr noundef %0, ptr noundef %1, i64 noundef %2, ptr noundef %3) #0 {
  %5 = alloca i32, align 4
  %6 = alloca ptr, align 8
  %7 = alloca ptr, align 8
  %8 = alloca i64, align 8
  %9 = alloca ptr, align 8
  store ptr %0, ptr %6, align 8, !tbaa !18
  store ptr %1, ptr %7, align 8, !tbaa !19
  store i64 %2, ptr %8, align 8, !tbaa !21
  store ptr %3, ptr %9, align 8, !tbaa !19
  %10 = load ptr, ptr %6, align 8, !tbaa !18
  %11 = icmp eq ptr %10, null
  br i1 %11, label %12, label %13

12:                                               ; preds = %4
  store i32 -20736, ptr %5, align 4
  br label %89

13:                                               ; preds = %4
  %14 = load ptr, ptr %6, align 8, !tbaa !18
  %15 = getelementptr inbounds nuw %struct.mbedtls_md_info_t, ptr %14, i32 0, i32 0
  %16 = load i32, ptr %15, align 4, !tbaa !14
  switch i32 %16, label %88 [
    i32 3, label %17
    i32 4, label %22
    i32 5, label %27
    i32 8, label %32
    i32 9, label %37
    i32 10, label %42
    i32 11, label %47
    i32 16, label %52
    i32 17, label %61
    i32 18, label %70
    i32 19, label %79
  ]

17:                                               ; preds = %13
  %18 = load ptr, ptr %7, align 8, !tbaa !19
  %19 = load i64, ptr %8, align 8, !tbaa !21
  %20 = load ptr, ptr %9, align 8, !tbaa !19
  %21 = call i32 @mbedtls_md5(ptr noundef %18, i64 noundef %19, ptr noundef %20)
  store i32 %21, ptr %5, align 4
  br label %89

22:                                               ; preds = %13
  %23 = load ptr, ptr %7, align 8, !tbaa !19
  %24 = load i64, ptr %8, align 8, !tbaa !21
  %25 = load ptr, ptr %9, align 8, !tbaa !19
  %26 = call i32 @mbedtls_ripemd160(ptr noundef %23, i64 noundef %24, ptr noundef %25)
  store i32 %26, ptr %5, align 4
  br label %89

27:                                               ; preds = %13
  %28 = load ptr, ptr %7, align 8, !tbaa !19
  %29 = load i64, ptr %8, align 8, !tbaa !21
  %30 = load ptr, ptr %9, align 8, !tbaa !19
  %31 = call i32 @mbedtls_sha1(ptr noundef %28, i64 noundef %29, ptr noundef %30)
  store i32 %31, ptr %5, align 4
  br label %89

32:                                               ; preds = %13
  %33 = load ptr, ptr %7, align 8, !tbaa !19
  %34 = load i64, ptr %8, align 8, !tbaa !21
  %35 = load ptr, ptr %9, align 8, !tbaa !19
  %36 = call i32 @mbedtls_sha256(ptr noundef %33, i64 noundef %34, ptr noundef %35, i32 noundef 1)
  store i32 %36, ptr %5, align 4
  br label %89

37:                                               ; preds = %13
  %38 = load ptr, ptr %7, align 8, !tbaa !19
  %39 = load i64, ptr %8, align 8, !tbaa !21
  %40 = load ptr, ptr %9, align 8, !tbaa !19
  %41 = call i32 @mbedtls_sha256(ptr noundef %38, i64 noundef %39, ptr noundef %40, i32 noundef 0)
  store i32 %41, ptr %5, align 4
  br label %89

42:                                               ; preds = %13
  %43 = load ptr, ptr %7, align 8, !tbaa !19
  %44 = load i64, ptr %8, align 8, !tbaa !21
  %45 = load ptr, ptr %9, align 8, !tbaa !19
  %46 = call i32 @mbedtls_sha512(ptr noundef %43, i64 noundef %44, ptr noundef %45, i32 noundef 1)
  store i32 %46, ptr %5, align 4
  br label %89

47:                                               ; preds = %13
  %48 = load ptr, ptr %7, align 8, !tbaa !19
  %49 = load i64, ptr %8, align 8, !tbaa !21
  %50 = load ptr, ptr %9, align 8, !tbaa !19
  %51 = call i32 @mbedtls_sha512(ptr noundef %48, i64 noundef %49, ptr noundef %50, i32 noundef 0)
  store i32 %51, ptr %5, align 4
  br label %89

52:                                               ; preds = %13
  %53 = load ptr, ptr %7, align 8, !tbaa !19
  %54 = load i64, ptr %8, align 8, !tbaa !21
  %55 = load ptr, ptr %9, align 8, !tbaa !19
  %56 = load ptr, ptr %6, align 8, !tbaa !18
  %57 = getelementptr inbounds nuw %struct.mbedtls_md_info_t, ptr %56, i32 0, i32 1
  %58 = load i8, ptr %57, align 4, !tbaa !23
  %59 = zext i8 %58 to i64
  %60 = call i32 @mbedtls_sha3(i32 noundef 1, ptr noundef %53, i64 noundef %54, ptr noundef %55, i64 noundef %59)
  store i32 %60, ptr %5, align 4
  br label %89

61:                                               ; preds = %13
  %62 = load ptr, ptr %7, align 8, !tbaa !19
  %63 = load i64, ptr %8, align 8, !tbaa !21
  %64 = load ptr, ptr %9, align 8, !tbaa !19
  %65 = load ptr, ptr %6, align 8, !tbaa !18
  %66 = getelementptr inbounds nuw %struct.mbedtls_md_info_t, ptr %65, i32 0, i32 1
  %67 = load i8, ptr %66, align 4, !tbaa !23
  %68 = zext i8 %67 to i64
  %69 = call i32 @mbedtls_sha3(i32 noundef 2, ptr noundef %62, i64 noundef %63, ptr noundef %64, i64 noundef %68)
  store i32 %69, ptr %5, align 4
  br label %89

70:                                               ; preds = %13
  %71 = load ptr, ptr %7, align 8, !tbaa !19
  %72 = load i64, ptr %8, align 8, !tbaa !21
  %73 = load ptr, ptr %9, align 8, !tbaa !19
  %74 = load ptr, ptr %6, align 8, !tbaa !18
  %75 = getelementptr inbounds nuw %struct.mbedtls_md_info_t, ptr %74, i32 0, i32 1
  %76 = load i8, ptr %75, align 4, !tbaa !23
  %77 = zext i8 %76 to i64
  %78 = call i32 @mbedtls_sha3(i32 noundef 3, ptr noundef %71, i64 noundef %72, ptr noundef %73, i64 noundef %77)
  store i32 %78, ptr %5, align 4
  br label %89

79:                                               ; preds = %13
  %80 = load ptr, ptr %7, align 8, !tbaa !19
  %81 = load i64, ptr %8, align 8, !tbaa !21
  %82 = load ptr, ptr %9, align 8, !tbaa !19
  %83 = load ptr, ptr %6, align 8, !tbaa !18
  %84 = getelementptr inbounds nuw %struct.mbedtls_md_info_t, ptr %83, i32 0, i32 1
  %85 = load i8, ptr %84, align 4, !tbaa !23
  %86 = zext i8 %85 to i64
  %87 = call i32 @mbedtls_sha3(i32 noundef 4, ptr noundef %80, i64 noundef %81, ptr noundef %82, i64 noundef %86)
  store i32 %87, ptr %5, align 4
  br label %89

88:                                               ; preds = %13
  store i32 -20736, ptr %5, align 4
  br label %89

89:                                               ; preds = %88, %79, %70, %61, %52, %47, %42, %37, %32, %27, %22, %17, %12
  %90 = load i32, ptr %5, align 4
  ret i32 %90
}