; Function Attrs: nounwind uwtable
define hidden i32 @mbedtls_md(ptr noundef readonly %0, ptr noundef %1, i64 noundef %2, ptr noundef %3) local_unnamed_addr #3 {
  %5 = icmp eq ptr %0, null
  br i1 %5, label %42, label %6

6:                                                ; preds = %4
  %7 = load i32, ptr %0, align 4, !tbaa !10
  switch i32 %7, label %42 [
    i32 3, label %8
    i32 4, label %10
    i32 5, label %12
    i32 8, label %14
    i32 9, label %16
    i32 10, label %18
    i32 11, label %20
    i32 16, label %22
    i32 17, label %27
    i32 18, label %32
    i32 19, label %37
  ]

8:                                                ; preds = %6
  %9 = tail call i32 @mbedtls_md5(ptr noundef %1, i64 noundef %2, ptr noundef %3) #14
  br label %42

10:                                               ; preds = %6
  %11 = tail call i32 @mbedtls_ripemd160(ptr noundef %1, i64 noundef %2, ptr noundef %3) #14
  br label %42

12:                                               ; preds = %6
  %13 = tail call i32 @mbedtls_sha1(ptr noundef %1, i64 noundef %2, ptr noundef %3) #14
  br label %42

14:                                               ; preds = %6
  %15 = tail call i32 @mbedtls_sha256(ptr noundef %1, i64 noundef %2, ptr noundef %3, i32 noundef 1) #14
  br label %42

16:                                               ; preds = %6
  %17 = tail call i32 @mbedtls_sha256(ptr noundef %1, i64 noundef %2, ptr noundef %3, i32 noundef 0) #14
  br label %42

18:                                               ; preds = %6
  %19 = tail call i32 @mbedtls_sha512(ptr noundef %1, i64 noundef %2, ptr noundef %3, i32 noundef 1) #14
  br label %42

20:                                               ; preds = %6
  %21 = tail call i32 @mbedtls_sha512(ptr noundef %1, i64 noundef %2, ptr noundef %3, i32 noundef 0) #14
  br label %42

22:                                               ; preds = %6
  %23 = getelementptr inbounds nuw i8, ptr %0, i64 4
  %24 = load i8, ptr %23, align 4, !tbaa !15
  %25 = zext i8 %24 to i64
  %26 = tail call i32 @mbedtls_sha3(i32 noundef 1, ptr noundef %1, i64 noundef %2, ptr noundef %3, i64 noundef %25) #14
  br label %42

27:                                               ; preds = %6
  %28 = getelementptr inbounds nuw i8, ptr %0, i64 4
  %29 = load i8, ptr %28, align 4, !tbaa !15
  %30 = zext i8 %29 to i64
  %31 = tail call i32 @mbedtls_sha3(i32 noundef 2, ptr noundef %1, i64 noundef %2, ptr noundef %3, i64 noundef %30) #14
  br label %42

32:                                               ; preds = %6
  %33 = getelementptr inbounds nuw i8, ptr %0, i64 4
  %34 = load i8, ptr %33, align 4, !tbaa !15
  %35 = zext i8 %34 to i64
  %36 = tail call i32 @mbedtls_sha3(i32 noundef 3, ptr noundef %1, i64 noundef %2, ptr noundef %3, i64 noundef %35) #14
  br label %42

37:                                               ; preds = %6
  %38 = getelementptr inbounds nuw i8, ptr %0, i64 4
  %39 = load i8, ptr %38, align 4, !tbaa !15
  %40 = zext i8 %39 to i64
  %41 = tail call i32 @mbedtls_sha3(i32 noundef 4, ptr noundef %1, i64 noundef %2, ptr noundef %3, i64 noundef %40) #14
  br label %42

42:                                               ; preds = %6, %4, %37, %32, %27, %22, %20, %18, %16, %14, %12, %10, %8
  %.0 = phi i32 [ %41, %37 ], [ %36, %32 ], [ %31, %27 ], [ %26, %22 ], [ %21, %20 ], [ %19, %18 ], [ %17, %16 ], [ %15, %14 ], [ %13, %12 ], [ %11, %10 ], [ %9, %8 ], [ -20736, %4 ], [ -20736, %6 ]
  ret i32 %.0
}